target datalayout = "e-m:e-p270:32:32-p271:32:32-p272:64:64-i64:64-i128:128-f80:128-n8:16:32:64-S128"
target triple = "x86_64-pc-linux-gnu"

%"struct.duckdb_zstd::seqStore_t" = type { ptr, ptr, ptr, ptr, ptr, ptr, ptr, i64, i64, i32, i32 }

; Function Attrs: mustprogress nounwind uwtable
define void @_ZN11duckdb_zstd18ZSTD_resetSeqStoreEPNS_10seqStore_tE(ptr noundef %0) #0 {
  %2 = alloca ptr, align 8
  store ptr %0, ptr %2, align 8, !tbaa !8
  %3 = load ptr, ptr %2, align 8, !tbaa !8
  %4 = getelementptr inbounds nuw %"struct.duckdb_zstd::seqStore_t", ptr %3, i32 0, i32 2
  %5 = load ptr, ptr %4, align 8, !tbaa !247
  %6 = load ptr, ptr %2, align 8, !tbaa !8
  %7 = getelementptr inbounds nuw %"struct.duckdb_zstd::seqStore_t", ptr %6, i32 0, i32 3
  store ptr %5, ptr %7, align 8, !tbaa !248
  %8 = load ptr, ptr %2, align 8, !tbaa !8
  %9 = getelementptr inbounds nuw %"struct.duckdb_zstd::seqStore_t", ptr %8, i32 0, i32 0
  %10 = load ptr, ptr %9, align 8, !tbaa !231
  %11 = load ptr, ptr %2, align 8, !tbaa !8
  %12 = getelementptr inbounds nuw %"struct.duckdb_zstd::seqStore_t", ptr %11, i32 0, i32 1
  store ptr %10, ptr %12, align 8, !tbaa !236
  %13 = load ptr, ptr %2, align 8, !tbaa !8
  %14 = getelementptr inbounds nuw %"struct.duckdb_zstd::seqStore_t", ptr %13, i32 0, i32 9
  store i32 0, ptr %14, align 8, !tbaa !243
  ret void
}