; Function Attrs: mustprogress nofree norecurse nosync nounwind willreturn memory(argmem: readwrite) uwtable
define void @_ZN11duckdb_zstd18ZSTD_resetSeqStoreEPNS_10seqStore_tE(ptr noundef captures(none) initializes((8, 16), (24, 32), (72, 76)) %0) local_unnamed_addr #9 {
  %2 = getelementptr inbounds nuw i8, ptr %0, i64 16
  %3 = load ptr, ptr %2, align 8, !tbaa !215
  %4 = getelementptr inbounds nuw i8, ptr %0, i64 24
  store ptr %3, ptr %4, align 8, !tbaa !216
  %5 = load ptr, ptr %0, align 8, !tbaa !201
  %6 = getelementptr inbounds nuw i8, ptr %0, i64 8
  store ptr %5, ptr %6, align 8, !tbaa !205
  %7 = getelementptr inbounds nuw i8, ptr %0, i64 72
  store i32 0, ptr %7, align 8, !tbaa !213
  ret void
}